target datalayout = "e-m:e-p270:32:32-p271:32:32-p272:64:64-i64:64-i128:128-f80:128-n8:16:32:64-S128"
target triple = "x86_64-pc-linux-gnu"

%class.vframe = type { ptr, %class.frame, %class.RegisterMap, ptr, %class.stackChunkHandle }
%class.frame = type { %union.anon, ptr, ptr, ptr, i32, i8, %union.anon.0, %union.anon.1 }
%union.anon = type { ptr }
%union.anon.0 = type { ptr }
%union.anon.1 = type { ptr }
%class.RegisterMap = type <{ [609 x ptr], [10 x i64], i8, [7 x i8], ptr, %class.stackChunkHandle, i32, i8, i8, i8, i8 }>
%class.stackChunkHandle = type { %class.Handle }
%class.Handle = type { ptr }

; Function Attrs: mustprogress nounwind uwtable
define linkonce_odr hidden noundef ptr @_ZNK6Handle3objEv(ptr noundef nonnull align 8 dereferenceable(8) %0) #1 comdat align 2 {
  %2 = alloca ptr, align 8
  store ptr %0, ptr %2, align 8
  %3 = load ptr, ptr %2, align 8
  %4 = getelementptr inbounds %class.Handle, ptr %3, i32 0, i32 0
  %5 = load ptr, ptr %4, align 8
  %6 = icmp eq ptr %5, null
  br i1 %6, label %7, label %8

7:                                                ; preds = %1
  br label %12

8:                                                ; preds = %1
  %9 = getelementptr inbounds %class.Handle, ptr %3, i32 0, i32 0
  %10 = load ptr, ptr %9, align 8
  %11 = load ptr, ptr %10, align 8
  br label %12

12:                                               ; preds = %8, %7
  %13 = phi ptr [ null, %7 ], [ %11, %8 ]
  ret ptr %13
}

; Function Attrs: mustprogress nounwind uwtable
define linkonce_odr hidden noundef ptr @_ZNK16stackChunkHandle3objEv(ptr noundef nonnull align 8 dereferenceable(8) %0) #1 comdat align 2 {
  %2 = alloca ptr, align 8
  store ptr %0, ptr %2, align 8
  %3 = load ptr, ptr %2, align 8
  %4 = call noundef ptr @_ZNK6Handle3objEv(ptr noundef nonnull align 8 dereferenceable(8) %3)
  ret ptr %4
}

; Function Attrs: mustprogress nounwind uwtable
define linkonce_odr hidden void @_ZN11RegisterMap21set_stack_chunk_indexEi(ptr noundef nonnull align 8 dereferenceable(4983) %0, i32 noundef %1) #1 comdat align 2 {
  %3 = alloca ptr, align 8
  %4 = alloca i32, align 4
  store ptr %0, ptr %3, align 8
  store i32 %1, ptr %4, align 4
  %5 = load ptr, ptr %3, align 8
  %6 = load i32, ptr %4, align 4
  %7 = getelementptr inbounds %class.RegisterMap, ptr %5, i32 0, i32 6
  store i32 %6, ptr %7, align 8
  ret void
}

; Function Attrs: mustprogress nounwind uwtable
define linkonce_odr hidden noundef ptr @_ZNK6vframe12register_mapEv(ptr noundef nonnull align 8 dereferenceable(5064) %0) #1 comdat align 2 {
  %2 = alloca ptr, align 8
  store ptr %0, ptr %2, align 8
  %3 = load ptr, ptr %2, align 8
  %4 = getelementptr inbounds %class.vframe, ptr %3, i32 0, i32 2
  ret ptr %4
}

; Function Attrs: mustprogress nounwind uwtable
define linkonce_odr hidden noundef i32 @_ZNK11RegisterMap17stack_chunk_indexEv(ptr noundef nonnull align 8 dereferenceable(4983) %0) #1 comdat align 2 {
  %2 = alloca ptr, align 8
  store ptr %0, ptr %2, align 8
  %3 = load ptr, ptr %2, align 8
  %4 = getelementptr inbounds %class.RegisterMap, ptr %3, i32 0, i32 6
  %5 = load i32, ptr %4, align 8
  ret i32 %5
}

; Function Attrs: mustprogress nounwind uwtable
define linkonce_odr hidden noundef ptr @_ZNK16stackChunkHandleclEv(ptr noundef nonnull align 8 dereferenceable(8) %0) #1 comdat align 2 {
  %2 = alloca ptr, align 8
  store ptr %0, ptr %2, align 8
  %3 = load ptr, ptr %2, align 8
  %4 = call noundef ptr @_ZNK16stackChunkHandle3objEv(ptr noundef nonnull align 8 dereferenceable(8) %3)
  ret ptr %4
}

; Function Attrs: mustprogress nounwind uwtable
define linkonce_odr hidden ptr @_ZNK11RegisterMap11stack_chunkEv(ptr noundef nonnull align 8 dereferenceable(4983) %0) #1 comdat align 2 {
  %2 = alloca %class.stackChunkHandle, align 8
  %3 = alloca ptr, align 8
  store ptr %0, ptr %3, align 8
  %4 = load ptr, ptr %3, align 8
  %5 = getelementptr inbounds %class.RegisterMap, ptr %4, i32 0, i32 5
  call void @llvm.memcpy.p0.p0.i64(ptr align 8 %2, ptr align 8 %5, i64 8, i1 false)
  %6 = getelementptr inbounds %class.stackChunkHandle, ptr %2, i32 0, i32 0
  %7 = getelementptr inbounds %class.Handle, ptr %6, i32 0, i32 0
  %8 = load ptr, ptr %7, align 8
  ret ptr %8
}

; Function Attrs: mustprogress nounwind uwtable
define hidden noundef ptr @_ZNK14compiledVFrame18create_stack_valueEP10ScopeValue(ptr noundef nonnull align 8 dereferenceable(5076) %0, ptr noundef %1) #1 align 2 {
  %3 = alloca ptr, align 8
  %4 = alloca ptr, align 8
  %5 = alloca ptr, align 8
  %6 = alloca %class.stackChunkHandle, align 8
  %7 = alloca i32, align 4
  %8 = alloca ptr, align 8
  store ptr %0, ptr %3, align 8
  store ptr %1, ptr %4, align 8
  %9 = load ptr, ptr %3, align 8
  %10 = getelementptr inbounds %class.vframe, ptr %9, i32 0, i32 2
  %11 = call ptr @_ZNK11RegisterMap11stack_chunkEv(ptr noundef nonnull align 8 dereferenceable(4983) %10)
  %12 = getelementptr inbounds %class.stackChunkHandle, ptr %6, i32 0, i32 0
  %13 = getelementptr inbounds %class.Handle, ptr %12, i32 0, i32 0
  store ptr %11, ptr %13, align 8
  %14 = call noundef ptr @_ZNK16stackChunkHandleclEv(ptr noundef nonnull align 8 dereferenceable(8) %6)
  store ptr %14, ptr %5, align 8
  %15 = getelementptr inbounds %class.vframe, ptr %9, i32 0, i32 2
  %16 = call noundef i32 @_ZNK11RegisterMap17stack_chunk_indexEv(ptr noundef nonnull align 8 dereferenceable(4983) %15)
  store i32 %16, ptr %7, align 4
  %17 = getelementptr inbounds %class.vframe, ptr %9, i32 0, i32 2
  %18 = getelementptr inbounds %class.vframe, ptr %9, i32 0, i32 4
  %19 = call noundef ptr @_ZNK16stackChunkHandleclEv(ptr noundef nonnull align 8 dereferenceable(8) %18)
  call void @_ZN11RegisterMap15set_stack_chunkEP17stackChunkOopDesc(ptr noundef nonnull align 8 dereferenceable(4983) %17, ptr noundef %19)
  %20 = getelementptr inbounds %class.vframe, ptr %9, i32 0, i32 1
  %21 = call noundef ptr @_ZNK6vframe12register_mapEv(ptr noundef nonnull align 8 dereferenceable(5064) %9)
  %22 = load ptr, ptr %4, align 8
  %23 = call noundef ptr @_ZN10StackValue18create_stack_valueI11RegisterMapEEPS_PK5framePKT_P10ScopeValue(ptr noundef %20, ptr noundef %21, ptr noundef %22)
  store ptr %23, ptr %8, align 8
  %24 = getelementptr inbounds %class.vframe, ptr %9, i32 0, i32 2
  %25 = load ptr, ptr %5, align 8
  call void @_ZN11RegisterMap15set_stack_chunkEP17stackChunkOopDesc(ptr noundef nonnull align 8 dereferenceable(4983) %24, ptr noundef %25)
  %26 = getelementptr inbounds %class.vframe, ptr %9, i32 0, i32 2
  %27 = load i32, ptr %7, align 4
  call void @_ZN11RegisterMap21set_stack_chunk_indexEi(ptr noundef nonnull align 8 dereferenceable(4983) %26, i32 noundef %27)
  %28 = load ptr, ptr %8, align 8
  ret ptr %28
}