; Function Attrs: mustprogress nounwind uwtable
define hidden noundef ptr @_ZNK14compiledVFrame18create_stack_valueEP10ScopeValue(ptr noundef nonnull align 8 dereferenceable(5076) %0, ptr noundef %1) local_unnamed_addr #0 align 2 {
  %3 = getelementptr inbounds i8, ptr %0, i64 5032
  %.sroa.0.0.copyload.i = load ptr, ptr %3, align 8
  %4 = icmp eq ptr %.sroa.0.0.copyload.i, null
  br i1 %4, label %_ZNK16stackChunkHandleclEv.exit, label %5

5:                                                ; preds = %2
  %6 = load ptr, ptr %.sroa.0.0.copyload.i, align 8
  br label %_ZNK16stackChunkHandleclEv.exit

_ZNK16stackChunkHandleclEv.exit:                  ; preds = %2, %5
  %7 = phi ptr [ %6, %5 ], [ null, %2 ]
  %8 = getelementptr inbounds i8, ptr %0, i64 5040
  %9 = load i32, ptr %8, align 8
  %10 = getelementptr inbounds i8, ptr %0, i64 5056
  %11 = load ptr, ptr %10, align 8
  %12 = icmp eq ptr %11, null
  br i1 %12, label %_ZNK16stackChunkHandleclEv.exit4, label %13

13:                                               ; preds = %_ZNK16stackChunkHandleclEv.exit
  %14 = load ptr, ptr %11, align 8
  br label %_ZNK16stackChunkHandleclEv.exit4

_ZNK16stackChunkHandleclEv.exit4:                 ; preds = %_ZNK16stackChunkHandleclEv.exit, %13
  %15 = phi ptr [ %14, %13 ], [ null, %_ZNK16stackChunkHandleclEv.exit ]
  %16 = getelementptr inbounds i8, ptr %0, i64 64
  tail call void @_ZN11RegisterMap15set_stack_chunkEP17stackChunkOopDesc(ptr noundef nonnull align 8 dereferenceable(4983) %16, ptr noundef %15) #11
  %17 = getelementptr inbounds i8, ptr %0, i64 8
  %18 = tail call noundef ptr @_ZN10StackValue18create_stack_valueI11RegisterMapEEPS_PK5framePKT_P10ScopeValue(ptr noundef nonnull %17, ptr noundef nonnull %16, ptr noundef %1) #11
  tail call void @_ZN11RegisterMap15set_stack_chunkEP17stackChunkOopDesc(ptr noundef nonnull align 8 dereferenceable(4983) %16, ptr noundef %7) #11
  store i32 %9, ptr %8, align 8
  ret ptr %18
}